target datalayout = "e-m:e-p270:32:32-p271:32:32-p272:64:64-i64:64-i128:128-f80:128-n8:16:32:64-S128"
target triple = "x86_64-pc-linux-gnu"

%struct.FunctionCallInfoBaseData = type { ptr, ptr, ptr, i32, i8, i16, [0 x %struct.NullableDatum] }
%struct.NullableDatum = type { i64, i8 }

@.str.2 = private unnamed_addr constant [6 x i8] c"int.c\00", align 1
@.str.5 = private unnamed_addr constant [22 x i8] c"smallint out of range\00", align 1
@.str.8 = private unnamed_addr constant [17 x i8] c"division by zero\00", align 1
@__func__.int2div = private unnamed_addr constant [8 x i8] c"int2div\00", align 1

; Function Attrs: inlinehint nounwind uwtable
define internal i64 @Int16GetDatum(i16 noundef signext %0) #2 {
  %2 = alloca i16, align 2
  store i16 %0, ptr %2, align 2
  %3 = load i16, ptr %2, align 2
  %4 = sext i16 %3 to i64
  ret i64 %4
}

; Function Attrs: inlinehint nounwind uwtable
define internal signext i16 @DatumGetInt16(i64 noundef %0) #2 {
  %2 = alloca i64, align 8
  store i64 %0, ptr %2, align 8
  %3 = load i64, ptr %2, align 8
  %4 = trunc i64 %3 to i16
  ret i16 %4
}

; Function Attrs: nounwind uwtable
define dso_local i64 @int2div(ptr noundef %0) #0 {
  %2 = alloca i64, align 8
  %3 = alloca ptr, align 8
  %4 = alloca i16, align 2
  %5 = alloca i16, align 2
  %6 = alloca i16, align 2
  %7 = alloca i32, align 4
  store ptr %0, ptr %3, align 8
  call void @llvm.lifetime.start.p0(i64 2, ptr %4) #10
  %8 = load ptr, ptr %3, align 8
  %9 = getelementptr inbounds nuw %struct.FunctionCallInfoBaseData, ptr %8, i32 0, i32 6
  %10 = getelementptr inbounds [0 x %struct.NullableDatum], ptr %9, i64 0, i64 0
  %11 = getelementptr inbounds nuw %struct.NullableDatum, ptr %10, i32 0, i32 0
  %12 = load i64, ptr %11, align 8
  %13 = call signext i16 @DatumGetInt16(i64 noundef %12)
  store i16 %13, ptr %4, align 2
  call void @llvm.lifetime.start.p0(i64 2, ptr %5) #10
  %14 = load ptr, ptr %3, align 8
  %15 = getelementptr inbounds nuw %struct.FunctionCallInfoBaseData, ptr %14, i32 0, i32 6
  %16 = getelementptr inbounds [0 x %struct.NullableDatum], ptr %15, i64 0, i64 1
  %17 = getelementptr inbounds nuw %struct.NullableDatum, ptr %16, i32 0, i32 0
  %18 = load i64, ptr %17, align 8
  %19 = call signext i16 @DatumGetInt16(i64 noundef %18)
  store i16 %19, ptr %5, align 2
  call void @llvm.lifetime.start.p0(i64 2, ptr %6) #10
  %20 = load i16, ptr %5, align 2
  %21 = sext i16 %20 to i32
  %22 = icmp eq i32 %21, 0
  br i1 %22, label %23, label %40

23:                                               ; preds = %1
  br label %24

24:                                               ; preds = %23
  br i1 true, label %25, label %27

25:                                               ; preds = %24
  %26 = call zeroext i1 @errstart_cold(i32 noundef 21, ptr noundef null) #12
  br i1 %26, label %29, label %32

27:                                               ; preds = %24
  %28 = call zeroext i1 @errstart(i32 noundef 21, ptr noundef null)
  br i1 %28, label %29, label %32

29:                                               ; preds = %27, %25
  %30 = call i32 @errcode(i32 noundef 33816706)
  %31 = call i32 (ptr, ...) @errmsg(ptr noundef @.str.8)
  call void @errfinish(ptr noundef @.str.2, i32 noundef 959, ptr noundef @__func__.int2div)
  br label %32

32:                                               ; preds = %29, %27, %25
  unreachable

33:                                               ; No predecessors!
  br label %34

34:                                               ; preds = %33
  br label %35

35:                                               ; preds = %34
  %36 = load ptr, ptr %3, align 8
  %37 = getelementptr inbounds nuw %struct.FunctionCallInfoBaseData, ptr %36, i32 0, i32 4
  store i8 1, ptr %37, align 4
  store i64 0, ptr %2, align 8
  store i32 1, ptr %7, align 4
  br label %82

38:                                               ; No predecessors!
  br label %39

39:                                               ; preds = %38
  br label %40

40:                                               ; preds = %39, %1
  %41 = load i16, ptr %5, align 2
  %42 = sext i16 %41 to i32
  %43 = icmp eq i32 %42, -1
  br i1 %43, label %44, label %73

44:                                               ; preds = %40
  %45 = load i16, ptr %4, align 2
  %46 = sext i16 %45 to i32
  %47 = icmp eq i32 %46, -32768
  %48 = zext i1 %47 to i32
  %49 = icmp ne i32 %48, 0
  %50 = zext i1 %49 to i32
  %51 = sext i32 %50 to i64
  %52 = call i64 @llvm.expect.i64(i64 %51, i64 0)
  %53 = icmp ne i64 %52, 0
  br i1 %53, label %54, label %66

54:                                               ; preds = %44
  br label %55

55:                                               ; preds = %54
  br i1 true, label %56, label %58

56:                                               ; preds = %55
  %57 = call zeroext i1 @errstart_cold(i32 noundef 21, ptr noundef null) #12
  br i1 %57, label %60, label %63

58:                                               ; preds = %55
  %59 = call zeroext i1 @errstart(i32 noundef 21, ptr noundef null)
  br i1 %59, label %60, label %63

60:                                               ; preds = %58, %56
  %61 = call i32 @errcode(i32 noundef 50331778)
  %62 = call i32 (ptr, ...) @errmsg(ptr noundef @.str.5)
  call void @errfinish(ptr noundef @.str.2, i32 noundef 975, ptr noundef @__func__.int2div)
  br label %63

63:                                               ; preds = %60, %58, %56
  unreachable

64:                                               ; No predecessors!
  br label %65

65:                                               ; preds = %64
  br label %66

66:                                               ; preds = %65, %44
  %67 = load i16, ptr %4, align 2
  %68 = sext i16 %67 to i32
  %69 = sub i32 0, %68
  %70 = trunc i32 %69 to i16
  store i16 %70, ptr %6, align 2
  %71 = load i16, ptr %6, align 2
  %72 = call i64 @Int16GetDatum(i16 noundef signext %71)
  store i64 %72, ptr %2, align 8
  store i32 1, ptr %7, align 4
  br label %82

73:                                               ; preds = %40
  %74 = load i16, ptr %4, align 2
  %75 = sext i16 %74 to i32
  %76 = load i16, ptr %5, align 2
  %77 = sext i16 %76 to i32
  %78 = sdiv i32 %75, %77
  %79 = trunc i32 %78 to i16
  store i16 %79, ptr %6, align 2
  %80 = load i16, ptr %6, align 2
  %81 = call i64 @Int16GetDatum(i16 noundef signext %80)
  store i64 %81, ptr %2, align 8
  store i32 1, ptr %7, align 4
  br label %82

82:                                               ; preds = %73, %66, %35
  call void @llvm.lifetime.end.p0(i64 2, ptr %6) #10
  call void @llvm.lifetime.end.p0(i64 2, ptr %5) #10
  call void @llvm.lifetime.end.p0(i64 2, ptr %4) #10
  %83 = load i64, ptr %2, align 8
  ret i64 %83
}