; Function Attrs: nounwind uwtable
define dso_local range(i64 -32768, 32768) i64 @int2div(ptr noundef readonly captures(none) %0) local_unnamed_addr #0 {
  %2 = getelementptr inbounds nuw i8, ptr %0, i64 32
  %3 = load i64, ptr %2, align 8
  %4 = trunc i64 %3 to i16
  %5 = getelementptr inbounds nuw i8, ptr %0, i64 48
  %6 = load i64, ptr %5, align 8
  %7 = trunc i64 %6 to i16
  switch i16 %7, label %19 [
    i16 0, label %8
    i16 -1, label %12
  ]

8:                                                ; preds = %1
  %9 = tail call zeroext i1 @errstart_cold(i32 noundef 21, ptr noundef null) #15
  tail call void @llvm.assume(i1 %9)
  %10 = tail call i32 @errcode(i32 noundef 33816706) #13
  %11 = tail call i32 (ptr, ...) @errmsg(ptr noundef nonnull @.str.8) #13
  tail call void @errfinish(ptr noundef nonnull @.str.2, i32 noundef 959, ptr noundef nonnull @__func__.int2div) #13
  unreachable

12:                                               ; preds = %1
  %13 = icmp eq i16 %4, -32768
  br i1 %13, label %14, label %18, !prof !14

14:                                               ; preds = %12
  %15 = tail call zeroext i1 @errstart_cold(i32 noundef 21, ptr noundef null) #15
  tail call void @llvm.assume(i1 %15)
  %16 = tail call i32 @errcode(i32 noundef 50331778) #13
  %17 = tail call i32 (ptr, ...) @errmsg(ptr noundef nonnull @.str.5) #13
  tail call void @errfinish(ptr noundef nonnull @.str.2, i32 noundef 975, ptr noundef nonnull @__func__.int2div) #13
  unreachable

18:                                               ; preds = %12
  %.neg = mul i64 %3, -281474976710656
  br label %24

19:                                               ; preds = %1
  %20 = sext i16 %7 to i32
  %21 = sext i16 %4 to i32
  %22 = sdiv i32 %21, %20
  %23 = zext i32 %22 to i64
  %sext = shl i64 %23, 48
  br label %24

24:                                               ; preds = %19, %18
  %.0.in = phi i64 [ %.neg, %18 ], [ %sext, %19 ]
  %.0 = ashr exact i64 %.0.in, 48
  ret i64 %.0
}